target datalayout = "e-m:e-p270:32:32-p271:32:32-p272:64:64-i64:64-i128:128-f80:128-n8:16:32:64-S128"
target triple = "x86_64-pc-linux-gnu"

%struct._lv_chart_t = type { %struct._lv_obj_t, %struct.lv_ll_t, %struct.lv_ll_t, [2 x i32], [2 x i32], [2 x i32], [2 x i32], i32, i32, i32, i32, i8 }
%struct._lv_obj_t = type { ptr, ptr, ptr, ptr, ptr, %struct.lv_area_t, i32, i16, i16 }
%struct.lv_area_t = type { i32, i32, i32, i32 }
%struct.lv_ll_t = type { i32, ptr, ptr }
%struct._lv_chart_series_t = type { ptr, ptr, %struct.lv_color_t, i32, i8 }
%struct.lv_color_t = type { i8, i8, i8 }

; Function Attrs: nounwind uwtable
define void @lv_chart_set_next_value(ptr noundef %0, ptr noundef %1, i32 noundef %2) #0 {
  %4 = alloca ptr, align 8
  %5 = alloca ptr, align 8
  %6 = alloca i32, align 4
  %7 = alloca ptr, align 8
  store ptr %0, ptr %4, align 8, !tbaa !3
  store ptr %1, ptr %5, align 8, !tbaa !3
  store i32 %2, ptr %6, align 4, !tbaa !7
  br label %8

8:                                                ; preds = %3
  br label %9

9:                                                ; preds = %8
  br label %10

10:                                               ; preds = %9
  %11 = load ptr, ptr %5, align 8, !tbaa !3
  %12 = icmp ne ptr %11, null
  br i1 %12, label %17, label %13

13:                                               ; preds = %10
  br label %14

14:                                               ; preds = %13
  br label %15

15:                                               ; preds = %14
  br label %16

16:                                               ; preds = %15, %16
  br label %16

17:                                               ; preds = %10
  br label %18

18:                                               ; preds = %17
  call void @llvm.lifetime.start.p0(i64 8, ptr %7) #5
  %19 = load ptr, ptr %4, align 8, !tbaa !3
  store ptr %19, ptr %7, align 8, !tbaa !3
  %20 = load i32, ptr %6, align 4, !tbaa !7
  %21 = load ptr, ptr %5, align 8, !tbaa !3
  %22 = getelementptr inbounds nuw %struct._lv_chart_series_t, ptr %21, i32 0, i32 1
  %23 = load ptr, ptr %22, align 8, !tbaa !21
  %24 = load ptr, ptr %5, align 8, !tbaa !3
  %25 = getelementptr inbounds nuw %struct._lv_chart_series_t, ptr %24, i32 0, i32 3
  %26 = load i32, ptr %25, align 4, !tbaa !32
  %27 = zext i32 %26 to i64
  %28 = getelementptr inbounds nuw i32, ptr %23, i64 %27
  store i32 %20, ptr %28, align 4, !tbaa !7
  %29 = load ptr, ptr %4, align 8, !tbaa !3
  %30 = load ptr, ptr %5, align 8, !tbaa !3
  %31 = getelementptr inbounds nuw %struct._lv_chart_series_t, ptr %30, i32 0, i32 3
  %32 = load i32, ptr %31, align 4, !tbaa !32
  call void @invalidate_point(ptr noundef %29, i32 noundef %32)
  %33 = load ptr, ptr %5, align 8, !tbaa !3
  %34 = getelementptr inbounds nuw %struct._lv_chart_series_t, ptr %33, i32 0, i32 3
  %35 = load i32, ptr %34, align 4, !tbaa !32
  %36 = add i32 %35, 1
  %37 = load ptr, ptr %7, align 8, !tbaa !3
  %38 = getelementptr inbounds nuw %struct._lv_chart_t, ptr %37, i32 0, i32 10
  %39 = load i32, ptr %38, align 4, !tbaa !16
  %40 = urem i32 %36, %39
  %41 = load ptr, ptr %5, align 8, !tbaa !3
  %42 = getelementptr inbounds nuw %struct._lv_chart_series_t, ptr %41, i32 0, i32 3
  store i32 %40, ptr %42, align 4, !tbaa !32
  %43 = load ptr, ptr %4, align 8, !tbaa !3
  %44 = load ptr, ptr %5, align 8, !tbaa !3
  %45 = getelementptr inbounds nuw %struct._lv_chart_series_t, ptr %44, i32 0, i32 3
  %46 = load i32, ptr %45, align 4, !tbaa !32
  call void @invalidate_point(ptr noundef %43, i32 noundef %46)
  call void @llvm.lifetime.end.p0(i64 8, ptr %7) #5
  ret void
}