; Function Attrs: nounwind uwtable
define void @lv_chart_set_next_value(ptr noundef %0, ptr noundef %1, i32 noundef %2) local_unnamed_addr #0 {
  %.not = icmp eq ptr %1, null
  br i1 %.not, label %.preheader, label %4

.preheader:                                       ; preds = %3, %.preheader
  br label %.preheader

4:                                                ; preds = %3
  %5 = getelementptr inbounds nuw i8, ptr %1, i64 8
  %6 = load ptr, ptr %5, align 8, !tbaa !18
  %7 = getelementptr inbounds nuw i8, ptr %1, i64 20
  %8 = load i32, ptr %7, align 4, !tbaa !66
  %9 = zext i32 %8 to i64
  %10 = getelementptr inbounds nuw i32, ptr %6, i64 %9
  store i32 %2, ptr %10, align 4, !tbaa !3
  %11 = load i32, ptr %7, align 4, !tbaa !66
  tail call fastcc void @invalidate_point(ptr noundef %0, i32 noundef %11)
  %12 = load i32, ptr %7, align 4, !tbaa !66
  %13 = add i32 %12, 1
  %14 = getelementptr inbounds nuw i8, ptr %0, i64 156
  %15 = load i32, ptr %14, align 4, !tbaa !15
  %16 = urem i32 %13, %15
  store i32 %16, ptr %7, align 4, !tbaa !66
  tail call fastcc void @invalidate_point(ptr noundef %0, i32 noundef %16)
  ret void
}